; ModuleID = 'source-C-CXX/23/956.c'
source_filename = "source-C-CXX/23/956.c"
target datalayout = "e-m:e-p270:32:32-p271:32:32-p272:64:64-i64:64-f80:128-n8:16:32:64-S128"
target triple = "x86_64-pc-linux-gnu"

@.str = private unnamed_addr constant [6 x i8] c"%s\0A%s\00", align 1

; Function Attrs: nounwind sspstrong uwtable
define dso_local i32 @main() local_unnamed_addr #0 {
  %1 = alloca [1000 x i8], align 16
  %2 = alloca [100 x [100 x i8]], align 16
  %3 = getelementptr inbounds [1000 x i8], [1000 x i8]* %1, i64 0, i64 0
  call void @llvm.lifetime.start.p0i8(i64 1000, i8* nonnull %3) #6
  %4 = getelementptr inbounds [100 x [100 x i8]], [100 x [100 x i8]]* %2, i64 0, i64 0, i64 0
  call void @llvm.lifetime.start.p0i8(i64 10000, i8* nonnull %4) #6
  %5 = call i32 (i8*, ...) bitcast (i32 (...)* @gets to i32 (i8*, ...)*)(i8* nonnull %3) #6
  br label %6

6:                                                ; preds = %16, %0
  %7 = phi i64 [ %23, %16 ], [ 0, %0 ]
  %8 = phi i32 [ %22, %16 ], [ 0, %0 ]
  %9 = phi i64 [ %25, %16 ], [ 0, %0 ]
  br label %10

10:                                               ; preds = %6, %14
  %11 = phi i64 [ %15, %14 ], [ %7, %6 ]
  %12 = getelementptr inbounds [1000 x i8], [1000 x i8]* %1, i64 0, i64 %11
  %13 = load i8, i8* %12, align 1, !tbaa !5
  switch i8 %13, label %14 [
    i8 0, label %26
    i8 32, label %16
  ]

14:                                               ; preds = %10
  %15 = add nuw i64 %11, 1
  br label %10, !llvm.loop !8

16:                                               ; preds = %10
  %17 = getelementptr inbounds [1000 x i8], [1000 x i8]* %1, i64 0, i64 %11
  store i8 0, i8* %17, align 1, !tbaa !5
  %18 = zext i32 %8 to i64
  %19 = getelementptr inbounds [100 x [100 x i8]], [100 x [100 x i8]]* %2, i64 0, i64 %18, i64 0
  %20 = getelementptr inbounds [1000 x i8], [1000 x i8]* %1, i64 0, i64 %9
  %21 = call i8* @strcpy(i8* noundef nonnull %19, i8* noundef nonnull %20) #6
  %22 = add nuw nsw i32 %8, 1
  %23 = add nuw i64 %11, 1
  %24 = shl i64 %23, 32
  %25 = ashr exact i64 %24, 32
  br label %6, !llvm.loop !8

26:                                               ; preds = %10
  %27 = zext i32 %8 to i64
  %28 = getelementptr inbounds [100 x [100 x i8]], [100 x [100 x i8]]* %2, i64 0, i64 %27, i64 0
  %29 = getelementptr inbounds [1000 x i8], [1000 x i8]* %1, i64 0, i64 %9
  %30 = call i8* @strcpy(i8* noundef nonnull %28, i8* noundef nonnull %29) #6
  %31 = call i64 @strlen(i8* noundef nonnull %4) #7
  %32 = trunc i64 %31 to i32
  %33 = icmp eq i32 %8, 0
  br i1 %33, label %70, label %34

34:                                               ; preds = %26
  %35 = add nuw i32 %8, 1
  %36 = zext i32 %35 to i64
  br label %42

37:                                               ; preds = %42
  %38 = sext i32 %51 to i64
  br i1 %33, label %70, label %39

39:                                               ; preds = %37
  %40 = add nuw i32 %8, 1
  %41 = zext i32 %40 to i64
  br label %55

42:                                               ; preds = %34, %42
  %43 = phi i64 [ 1, %34 ], [ %53, %42 ]
  %44 = phi i32 [ %32, %34 ], [ %52, %42 ]
  %45 = phi i32 [ 0, %34 ], [ %51, %42 ]
  %46 = getelementptr inbounds [100 x [100 x i8]], [100 x [100 x i8]]* %2, i64 0, i64 %43, i64 0
  %47 = call i64 @strlen(i8* noundef nonnull %46) #7
  %48 = trunc i64 %47 to i32
  %49 = icmp slt i32 %44, %48
  %50 = trunc i64 %43 to i32
  %51 = select i1 %49, i32 %50, i32 %45
  %52 = select i1 %49, i32 %48, i32 %44
  %53 = add nuw nsw i64 %43, 1
  %54 = icmp eq i64 %53, %36
  br i1 %54, label %37, label %42, !llvm.loop !10

55:                                               ; preds = %39, %55
  %56 = phi i64 [ 1, %39 ], [ %66, %55 ]
  %57 = phi i32 [ %32, %39 ], [ %65, %55 ]
  %58 = phi i32 [ 0, %39 ], [ %64, %55 ]
  %59 = getelementptr inbounds [100 x [100 x i8]], [100 x [100 x i8]]* %2, i64 0, i64 %56, i64 0
  %60 = call i64 @strlen(i8* noundef nonnull %59) #7
  %61 = trunc i64 %60 to i32
  %62 = icmp sgt i32 %57, %61
  %63 = trunc i64 %56 to i32
  %64 = select i1 %62, i32 %63, i32 %58
  %65 = select i1 %62, i32 %61, i32 %57
  %66 = add nuw nsw i64 %56, 1
  %67 = icmp eq i64 %66, %41
  br i1 %67, label %68, label %55, !llvm.loop !11

68:                                               ; preds = %55
  %69 = sext i32 %64 to i64
  br label %70

70:                                               ; preds = %26, %68, %37
  %71 = phi i64 [ %38, %37 ], [ %38, %68 ], [ 0, %26 ]
  %72 = phi i64 [ 0, %37 ], [ %69, %68 ], [ 0, %26 ]
  %73 = getelementptr inbounds [100 x [100 x i8]], [100 x [100 x i8]]* %2, i64 0, i64 %71, i64 0
  %74 = getelementptr inbounds [100 x [100 x i8]], [100 x [100 x i8]]* %2, i64 0, i64 %72, i64 0
  %75 = call i32 (i8*, ...) @printf(i8* nonnull dereferenceable(1) getelementptr inbounds ([6 x i8], [6 x i8]* @.str, i64 0, i64 0), i8* nonnull %73, i8* nonnull %74)
  call void @llvm.lifetime.end.p0i8(i64 10000, i8* nonnull %4) #6
  call void @llvm.lifetime.end.p0i8(i64 1000, i8* nonnull %3) #6
  ret i32 0
}

; Function Attrs: argmemonly mustprogress nofree nosync nounwind willreturn
declare void @llvm.lifetime.start.p0i8(i64 immarg, i8* nocapture) #1

declare i32 @gets(...) local_unnamed_addr #2

; Function Attrs: argmemonly mustprogress nofree nounwind willreturn
declare i8* @strcpy(i8* noalias returned writeonly, i8* noalias nocapture readonly) local_unnamed_addr #3

; Function Attrs: argmemonly mustprogress nofree nounwind readonly willreturn
declare i64 @strlen(i8* nocapture) local_unnamed_addr #4

; Function Attrs: nofree nounwind
declare noundef i32 @printf(i8* nocapture noundef readonly, ...) local_unnamed_addr #5

; Function Attrs: argmemonly mustprogress nofree nosync nounwind willreturn
declare void @llvm.lifetime.end.p0i8(i64 immarg, i8* nocapture) #1


!llvm.module.flags = !{!0, !1, !2, !3}
!llvm.ident = !{!4}

!0 = !{i32 1, !"wchar_size", i32 4}
!1 = !{i32 7, !"PIC Level", i32 2}
!2 = !{i32 7, !"PIE Level", i32 2}
!3 = !{i32 7, !"uwtable", i32 1}
!4 = !{!"clang version 13.0.0"}
!5 = !{!6, !6, i64 0}
!6 = !{!"omnipotent char", !7, i64 0}
!7 = !{!"Simple C/C++ TBAA"}
!8 = distinct !{!8, !9}
!9 = !{!"llvm.loop.mustprogress"}
!10 = distinct !{!10, !9}
!11 = distinct !{!11, !9}
